ccopy_reg
_reconstructor
p0
(csklearn.linear_model.base
LinearRegression
p1
c__builtin__
object
p2
Ntp3
Rp4
(dp5
S'normalize'
p6
I00
sS'n_jobs'
p7
NsS'rank_'
p8
I5
sS'fit_intercept'
p9
I01
sS'_residues'
p10
cnumpy.core.multiarray
scalar
p11
(cnumpy
dtype
p12
(S'f8'
p13
I0
I1
tp14
Rp15
(I3
S'<'
p16
NNNI-1
I-1
I0
tp17
bS'o\xe8\xd3\x0fC>B@'
p18
tp19
Rp20
sS'coef_'
p21
cnumpy.core.multiarray
_reconstruct
p22
(cnumpy
ndarray
p23
(I0
tp24
S'b'
p25
tp26
Rp27
(I1
(I5
tp28
g15
I00
S"\xac\xc3\x1b\xec\n\x16`\xbf\x90T\xfbJ\xa3=}\xbf`'\xeaj\x0b\xc14\xbf \x7f\xbe\x15\xa6\xbc0\xbf\x84\xabw\x9b\x9964\xbf"
p29
tp30
bsS'_sklearn_version'
p31
S'0.20.4'
p32
sS'copy_X'
p33
I01
sS'intercept_'
p34
g11
(g15
S'\xd2\x1a\x13n\x17x\xf4?'
p35
tp36
Rp37
sS'singular_'
p38
g22
(g23
(I0
tp39
g25
tp40
Rp41
(I1
(I5
tp42
g15
I00
S'_\xc4WG@H\xa5@\x7f\xb8\xbd\xd2\xa4T\x98@\x9b8\xb3\r\xf6\x0f\x96@\xbeuRfMR\x92@\xb4\x15eD\t\xa8\x88@'
p43
tp44
bsb.